; Function Attrs: mustprogress uwtable
define hidden void @_ZN4cvc58internal6theory7strings17SequencesRewriter35rewriteViaMacroSubstrStripSymLengthERKNS0_12NodeTemplateILb1EEERNS2_7RewriteERNS2_13StringsEntailE(ptr dead_on_unwind noalias writable sret(%"class.cvc5::internal::NodeTemplate") align 8 %0, ptr nonnull readnone align 8 captures(none) %1, ptr noundef nonnull align 8 dereferenceable(8) %2, ptr noundef nonnull align 4 dereferenceable(4) %3, ptr noundef nonnull align 8 dereferenceable(24) %4) local_unnamed_addr #3 align 2 personality ptr @__gxx_personality_v0 {
  %6 = alloca %"class.std::vector.80", align 8
  %7 = alloca %"class.std::vector.80", align 8
  %8 = load ptr, ptr %2, align 8, !tbaa !37
  %9 = getelementptr inbounds nuw i8, ptr %8, i64 8
  %10 = load i64, ptr %9, align 8
  %11 = and i64 %10, 1023
  %.not = icmp eq i64 %11, 318
  br i1 %.not, label %28, label %12

12:                                               ; preds = %5
  tail call void @llvm.experimental.noalias.scope.decl(metadata !313)
  %13 = load ptr, ptr @_ZN4cvc58internal12NodeTemplateILb1EE6s_nullE, align 8, !tbaa !37, !noalias !313
  store ptr %13, ptr %0, align 8, !tbaa !37, !alias.scope !313
  %14 = load i64, ptr %13, align 8, !noalias !313
  %15 = lshr i64 %14, 40
  %16 = trunc nuw nsw i64 %15 to i32
  %17 = and i32 %16, 1048575
  %18 = icmp samesign ult i32 %17, 1048574
  br i1 %18, label %19, label %24, !prof !50

19:                                               ; preds = %12
  %20 = add i64 %14, 1099511627776
  %21 = and i64 %20, 1152920405095219200
  %22 = and i64 %14, -1152920405095219201
  %23 = or disjoint i64 %21, %22
  store i64 %23, ptr %13, align 8, !noalias !313
  br label %_ZN4cvc58internal12NodeTemplateILb1EE4nullEv.exit

24:                                               ; preds = %12
  %25 = icmp eq i32 %17, 1048574
  br i1 %25, label %26, label %_ZN4cvc58internal12NodeTemplateILb1EE4nullEv.exit, !prof !49

26:                                               ; preds = %24
  %27 = or i64 %14, 1152920405095219200
  store i64 %27, ptr %13, align 8, !noalias !313
  tail call void @_ZN4cvc58internal4expr9NodeValue20markRefCountMaxedOutEv(ptr noundef nonnull align 8 dereferenceable(24) %13), !noalias !313
  br label %_ZN4cvc58internal12NodeTemplateILb1EE4nullEv.exit

28:                                               ; preds = %5
  call void @llvm.lifetime.start.p0(i64 24, ptr nonnull %6) #24
  call void @llvm.memset.p0.i64(ptr noundef nonnull align 8 dereferenceable(24) %6, i8 0, i64 24, i1 false)
  call void @llvm.lifetime.start.p0(i64 24, ptr nonnull %7) #24
  call void @llvm.memset.p0.i64(ptr noundef nonnull align 8 dereferenceable(24) %7, i8 0, i64 24, i1 false)
  invoke void @_ZN4cvc58internal6theory7strings13StringsEntail35rewriteViaMacroSubstrStripSymLengthERKNS0_12NodeTemplateILb1EEERNS2_7RewriteERSt6vectorIS5_SaIS5_EESD_(ptr dead_on_unwind writable sret(%"class.cvc5::internal::NodeTemplate") align 8 %0, ptr noundef nonnull align 8 dereferenceable(24) %4, ptr noundef nonnull align 8 dereferenceable(8) %2, ptr noundef nonnull align 4 dereferenceable(4) %3, ptr noundef nonnull align 8 dereferenceable(24) %6, ptr noundef nonnull align 8 dereferenceable(24) %7)
          to label %29 unwind label %78

29:                                               ; preds = %28
  %30 = load ptr, ptr %7, align 8, !tbaa !63
  %31 = getelementptr inbounds nuw i8, ptr %7, i64 8
  %32 = load ptr, ptr %31, align 8, !tbaa !66
  %.not4.i.i.i.i = icmp eq ptr %30, %32
  br i1 %.not4.i.i.i.i, label %_ZSt8_DestroyIPN4cvc58internal12NodeTemplateILb1EEES3_EvT_S5_RSaIT0_E.exit.i, label %.lr.ph.i.i.i.i

.lr.ph.i.i.i.i:                                   ; preds = %29, %_ZSt8_DestroyIN4cvc58internal12NodeTemplateILb1EEEEvPT_.exit.i.i.i.i
  %.05.i.i.i.i = phi ptr [ %46, %_ZSt8_DestroyIN4cvc58internal12NodeTemplateILb1EEEEvPT_.exit.i.i.i.i ], [ %30, %29 ]
  %33 = load ptr, ptr %.05.i.i.i.i, align 8, !tbaa !37
  %34 = load i64, ptr %33, align 8
  %35 = and i64 %34, 1152920405095219200
  %.not.i.i.i.i.i.i.i = icmp eq i64 %35, 1152920405095219200
  br i1 %.not.i.i.i.i.i.i.i, label %_ZSt8_DestroyIN4cvc58internal12NodeTemplateILb1EEEEvPT_.exit.i.i.i.i, label %36, !prof !49

36:                                               ; preds = %.lr.ph.i.i.i.i
  %37 = add i64 %34, 1152920405095219200
  %38 = and i64 %37, 1152920405095219200
  %39 = and i64 %34, -1152920405095219201
  %40 = or disjoint i64 %38, %39
  store i64 %40, ptr %33, align 8
  %41 = icmp eq i64 %38, 0
  br i1 %41, label %42, label %_ZSt8_DestroyIN4cvc58internal12NodeTemplateILb1EEEEvPT_.exit.i.i.i.i, !prof !49

42:                                               ; preds = %36
  invoke void @_ZN4cvc58internal4expr9NodeValue15markForDeletionEv(ptr noundef nonnull align 8 dereferenceable(24) %33)
          to label %_ZSt8_DestroyIN4cvc58internal12NodeTemplateILb1EEEEvPT_.exit.i.i.i.i unwind label %43

43:                                               ; preds = %42
  %44 = landingpad { ptr, i32 }
          catch ptr null
  %45 = extractvalue { ptr, i32 } %44, 0
  call void @__clang_call_terminate(ptr %45) #26
  unreachable

_ZSt8_DestroyIN4cvc58internal12NodeTemplateILb1EEEEvPT_.exit.i.i.i.i: ; preds = %42, %36, %.lr.ph.i.i.i.i
  %46 = getelementptr inbounds nuw i8, ptr %.05.i.i.i.i, i64 8
  %.not.i.i.i.i = icmp eq ptr %46, %32
  br i1 %.not.i.i.i.i, label %_ZSt8_DestroyIPN4cvc58internal12NodeTemplateILb1EEES3_EvT_S5_RSaIT0_E.exitthread-pre-split.i, label %.lr.ph.i.i.i.i, !llvm.loop !67

_ZSt8_DestroyIPN4cvc58internal12NodeTemplateILb1EEES3_EvT_S5_RSaIT0_E.exitthread-pre-split.i: ; preds = %_ZSt8_DestroyIN4cvc58internal12NodeTemplateILb1EEEEvPT_.exit.i.i.i.i
  %.pr.i = load ptr, ptr %7, align 8, !tbaa !63
  br label %_ZSt8_DestroyIPN4cvc58internal12NodeTemplateILb1EEES3_EvT_S5_RSaIT0_E.exit.i

_ZSt8_DestroyIPN4cvc58internal12NodeTemplateILb1EEES3_EvT_S5_RSaIT0_E.exit.i: ; preds = %_ZSt8_DestroyIPN4cvc58internal12NodeTemplateILb1EEES3_EvT_S5_RSaIT0_E.exitthread-pre-split.i, %29
  %47 = phi ptr [ %.pr.i, %_ZSt8_DestroyIPN4cvc58internal12NodeTemplateILb1EEES3_EvT_S5_RSaIT0_E.exitthread-pre-split.i ], [ %30, %29 ]
  %.not.i.i.i = icmp eq ptr %47, null
  br i1 %.not.i.i.i, label %_ZNSt6vectorIN4cvc58internal12NodeTemplateILb1EEESaIS3_EED2Ev.exit, label %48

48:                                               ; preds = %_ZSt8_DestroyIPN4cvc58internal12NodeTemplateILb1EEES3_EvT_S5_RSaIT0_E.exit.i
  %49 = getelementptr inbounds nuw i8, ptr %7, i64 16
  %50 = load ptr, ptr %49, align 8, !tbaa !69
  %51 = ptrtoint ptr %50 to i64
  %52 = ptrtoint ptr %47 to i64
  %53 = sub i64 %51, %52
  call void @_ZdlPvm(ptr noundef nonnull %47, i64 noundef %53) #27
  br label %_ZNSt6vectorIN4cvc58internal12NodeTemplateILb1EEESaIS3_EED2Ev.exit

_ZNSt6vectorIN4cvc58internal12NodeTemplateILb1EEESaIS3_EED2Ev.exit: ; preds = %_ZSt8_DestroyIPN4cvc58internal12NodeTemplateILb1EEES3_EvT_S5_RSaIT0_E.exit.i, %48
  call void @llvm.lifetime.end.p0(i64 24, ptr nonnull %7) #24
  %54 = load ptr, ptr %6, align 8, !tbaa !63
  %55 = getelementptr inbounds nuw i8, ptr %6, i64 8
  %56 = load ptr, ptr %55, align 8, !tbaa !66
  %.not4.i.i.i.i5 = icmp eq ptr %54, %56
  br i1 %.not4.i.i.i.i5, label %_ZSt8_DestroyIPN4cvc58internal12NodeTemplateILb1EEES3_EvT_S5_RSaIT0_E.exit.i13, label %.lr.ph.i.i.i.i6

.lr.ph.i.i.i.i6:                                  ; preds = %_ZNSt6vectorIN4cvc58internal12NodeTemplateILb1EEESaIS3_EED2Ev.exit, %_ZSt8_DestroyIN4cvc58internal12NodeTemplateILb1EEEEvPT_.exit.i.i.i.i9
  %.05.i.i.i.i7 = phi ptr [ %70, %_ZSt8_DestroyIN4cvc58internal12NodeTemplateILb1EEEEvPT_.exit.i.i.i.i9 ], [ %54, %_ZNSt6vectorIN4cvc58internal12NodeTemplateILb1EEESaIS3_EED2Ev.exit ]
  %57 = load ptr, ptr %.05.i.i.i.i7, align 8, !tbaa !37
  %58 = load i64, ptr %57, align 8
  %59 = and i64 %58, 1152920405095219200
  %.not.i.i.i.i.i.i.i8 = icmp eq i64 %59, 1152920405095219200
  br i1 %.not.i.i.i.i.i.i.i8, label %_ZSt8_DestroyIN4cvc58internal12NodeTemplateILb1EEEEvPT_.exit.i.i.i.i9, label %60, !prof !49

60:                                               ; preds = %.lr.ph.i.i.i.i6
  %61 = add i64 %58, 1152920405095219200
  %62 = and i64 %61, 1152920405095219200
  %63 = and i64 %58, -1152920405095219201
  %64 = or disjoint i64 %62, %63
  store i64 %64, ptr %57, align 8
  %65 = icmp eq i64 %62, 0
  br i1 %65, label %66, label %_ZSt8_DestroyIN4cvc58internal12NodeTemplateILb1EEEEvPT_.exit.i.i.i.i9, !prof !49

66:                                               ; preds = %60
  invoke void @_ZN4cvc58internal4expr9NodeValue15markForDeletionEv(ptr noundef nonnull align 8 dereferenceable(24) %57)
          to label %_ZSt8_DestroyIN4cvc58internal12NodeTemplateILb1EEEEvPT_.exit.i.i.i.i9 unwind label %67

67:                                               ; preds = %66
  %68 = landingpad { ptr, i32 }
          catch ptr null
  %69 = extractvalue { ptr, i32 } %68, 0
  call void @__clang_call_terminate(ptr %69) #26
  unreachable

_ZSt8_DestroyIN4cvc58internal12NodeTemplateILb1EEEEvPT_.exit.i.i.i.i9: ; preds = %66, %60, %.lr.ph.i.i.i.i6
  %70 = getelementptr inbounds nuw i8, ptr %.05.i.i.i.i7, i64 8
  %.not.i.i.i.i10 = icmp eq ptr %70, %56
  br i1 %.not.i.i.i.i10, label %_ZSt8_DestroyIPN4cvc58internal12NodeTemplateILb1EEES3_EvT_S5_RSaIT0_E.exitthread-pre-split.i11, label %.lr.ph.i.i.i.i6, !llvm.loop !67

_ZSt8_DestroyIPN4cvc58internal12NodeTemplateILb1EEES3_EvT_S5_RSaIT0_E.exitthread-pre-split.i11: ; preds = %_ZSt8_DestroyIN4cvc58internal12NodeTemplateILb1EEEEvPT_.exit.i.i.i.i9
  %.pr.i12 = load ptr, ptr %6, align 8, !tbaa !63
  br label %_ZSt8_DestroyIPN4cvc58internal12NodeTemplateILb1EEES3_EvT_S5_RSaIT0_E.exit.i13

_ZSt8_DestroyIPN4cvc58internal12NodeTemplateILb1EEES3_EvT_S5_RSaIT0_E.exit.i13: ; preds = %_ZSt8_DestroyIPN4cvc58internal12NodeTemplateILb1EEES3_EvT_S5_RSaIT0_E.exitthread-pre-split.i11, %_ZNSt6vectorIN4cvc58internal12NodeTemplateILb1EEESaIS3_EED2Ev.exit
  %71 = phi ptr [ %.pr.i12, %_ZSt8_DestroyIPN4cvc58internal12NodeTemplateILb1EEES3_EvT_S5_RSaIT0_E.exitthread-pre-split.i11 ], [ %54, %_ZNSt6vectorIN4cvc58internal12NodeTemplateILb1EEESaIS3_EED2Ev.exit ]
  %.not.i.i.i14 = icmp eq ptr %71, null
  br i1 %.not.i.i.i14, label %_ZNSt6vectorIN4cvc58internal12NodeTemplateILb1EEESaIS3_EED2Ev.exit15, label %72

72:                                               ; preds = %_ZSt8_DestroyIPN4cvc58internal12NodeTemplateILb1EEES3_EvT_S5_RSaIT0_E.exit.i13
  %73 = getelementptr inbounds nuw i8, ptr %6, i64 16
  %74 = load ptr, ptr %73, align 8, !tbaa !69
  %75 = ptrtoint ptr %74 to i64
  %76 = ptrtoint ptr %71 to i64
  %77 = sub i64 %75, %76
  call void @_ZdlPvm(ptr noundef nonnull %71, i64 noundef %77) #27
  br label %_ZNSt6vectorIN4cvc58internal12NodeTemplateILb1EEESaIS3_EED2Ev.exit15

_ZNSt6vectorIN4cvc58internal12NodeTemplateILb1EEESaIS3_EED2Ev.exit15: ; preds = %_ZSt8_DestroyIPN4cvc58internal12NodeTemplateILb1EEES3_EvT_S5_RSaIT0_E.exit.i13, %72
  call void @llvm.lifetime.end.p0(i64 24, ptr nonnull %6) #24
  br label %_ZN4cvc58internal12NodeTemplateILb1EE4nullEv.exit

78:                                               ; preds = %28
  %79 = landingpad { ptr, i32 }
          cleanup
  call void @_ZNSt6vectorIN4cvc58internal12NodeTemplateILb1EEESaIS3_EED2Ev(ptr noundef nonnull align 8 dereferenceable(24) %7) #24
  call void @llvm.lifetime.end.p0(i64 24, ptr nonnull %7) #24
  call void @_ZNSt6vectorIN4cvc58internal12NodeTemplateILb1EEESaIS3_EED2Ev(ptr noundef nonnull align 8 dereferenceable(24) %6) #24
  call void @llvm.lifetime.end.p0(i64 24, ptr nonnull %6) #24
  resume { ptr, i32 } %79

_ZN4cvc58internal12NodeTemplateILb1EE4nullEv.exit: ; preds = %26, %24, %19, %_ZNSt6vectorIN4cvc58internal12NodeTemplateILb1EEESaIS3_EED2Ev.exit15
  ret void
}